; Function Attrs: nounwind uwtable
define internal range(i32 0, 28) i32 @ftp_setup_connection(ptr noundef %0, ptr noundef captures(none) %1) #0 {
  %3 = load ptr, ptr @Curl_ccalloc, align 8, !tbaa !3
  %4 = tail call ptr %3(i64 noundef 1, i64 noundef 32) #10
  %.not = icmp eq ptr %4, null
  br i1 %.not, label %76, label %5

5:                                                ; preds = %2
  %6 = getelementptr inbounds nuw i8, ptr %0, i64 2072
  %7 = load ptr, ptr %6, align 8, !tbaa !7
  %.not52 = icmp eq ptr %7, null
  br i1 %.not52, label %14, label %8

8:                                                ; preds = %5
  %9 = load ptr, ptr @Curl_cstrdup, align 8, !tbaa !3
  %10 = tail call ptr %9(ptr noundef nonnull %7) #10
  %11 = getelementptr inbounds nuw i8, ptr %1, i64 1248
  store ptr %10, ptr %11, align 8, !tbaa !9
  %.not53 = icmp eq ptr %10, null
  br i1 %.not53, label %12, label %14

12:                                               ; preds = %8
  %13 = load ptr, ptr @Curl_cfree, align 8, !tbaa !3
  tail call void %13(ptr noundef nonnull %4) #10
  br label %76

14:                                               ; preds = %8, %5
  %15 = getelementptr inbounds nuw i8, ptr %0, i64 2080
  %16 = load ptr, ptr %15, align 8, !tbaa !7
  %.not54 = icmp eq ptr %16, null
  br i1 %.not54, label %26, label %17

17:                                               ; preds = %14
  %18 = load ptr, ptr @Curl_cstrdup, align 8, !tbaa !3
  %19 = tail call ptr %18(ptr noundef nonnull %16) #10
  %20 = getelementptr inbounds nuw i8, ptr %1, i64 1256
  store ptr %19, ptr %20, align 8, !tbaa !19
  %.not55 = icmp eq ptr %19, null
  br i1 %.not55, label %21, label %26

21:                                               ; preds = %17
  %22 = load ptr, ptr @Curl_cfree, align 8, !tbaa !3
  %23 = getelementptr inbounds nuw i8, ptr %1, i64 1248
  %24 = load ptr, ptr %23, align 8, !tbaa !9
  tail call void %22(ptr noundef %24) #10
  store ptr null, ptr %23, align 8, !tbaa !9
  %25 = load ptr, ptr @Curl_cfree, align 8, !tbaa !3
  tail call void %25(ptr noundef nonnull %4) #10
  br label %76

26:                                               ; preds = %17, %14
  %27 = getelementptr inbounds nuw i8, ptr %0, i64 440
  store ptr %4, ptr %27, align 8, !tbaa !20
  %28 = getelementptr inbounds nuw i8, ptr %0, i64 4616
  %29 = load ptr, ptr %28, align 8, !tbaa !21
  %30 = getelementptr inbounds nuw i8, ptr %29, i64 1
  store ptr %30, ptr %4, align 8, !tbaa !84
  %31 = tail call ptr @strstr(ptr noundef nonnull dereferenceable(1) %30, ptr noundef nonnull dereferenceable(1) @.str.177) #11
  %.not56 = icmp eq ptr %31, null
  br i1 %.not56, label %32, label %.thread

32:                                               ; preds = %26
  %33 = getelementptr inbounds nuw i8, ptr %1, i64 88
  %34 = load ptr, ptr %33, align 8, !tbaa !86
  %35 = tail call ptr @strstr(ptr noundef nonnull dereferenceable(1) %34, ptr noundef nonnull dereferenceable(1) @.str.177) #11
  %.not57 = icmp eq ptr %35, null
  br i1 %.not57, label %47, label %.thread

.thread:                                          ; preds = %26, %32
  %.04564 = phi ptr [ %35, %32 ], [ %31, %26 ]
  store i8 0, ptr %.04564, align 1, !tbaa !20
  %36 = getelementptr inbounds nuw i8, ptr %.04564, i64 6
  %37 = load i8, ptr %36, align 1, !tbaa !20
  %38 = tail call signext i8 @Curl_raw_toupper(i8 noundef signext %37) #10
  %39 = getelementptr inbounds nuw i8, ptr %0, i64 5036
  %40 = load i32, ptr %39, align 4
  switch i8 %38, label %45 [
    i8 65, label %41
    i8 68, label %43
  ]

41:                                               ; preds = %.thread
  %42 = or i32 %40, 16384
  br label %.sink.split

43:                                               ; preds = %.thread
  %44 = or i32 %40, 32768
  br label %.sink.split

45:                                               ; preds = %.thread
  %46 = and i32 %40, -16385
  br label %.sink.split

.sink.split:                                      ; preds = %41, %43, %45
  %.sink = phi i32 [ %46, %45 ], [ %44, %43 ], [ %42, %41 ]
  store i32 %.sink, ptr %39, align 4
  br label %47

47:                                               ; preds = %.sink.split, %32
  %48 = getelementptr inbounds nuw i8, ptr %4, i64 16
  store i32 0, ptr %48, align 8, !tbaa !95
  %49 = getelementptr inbounds nuw i8, ptr %4, i64 24
  store i64 0, ptr %49, align 8, !tbaa !96
  %50 = getelementptr inbounds nuw i8, ptr %1, i64 1328
  store i64 -1, ptr %50, align 8, !tbaa !97
  %51 = getelementptr inbounds nuw i8, ptr %0, i64 2652
  %52 = load i8, ptr %51, align 4, !tbaa !98
  %53 = getelementptr inbounds nuw i8, ptr %1, i64 1360
  store i8 %52, ptr %53, align 8, !tbaa !99
  %54 = getelementptr inbounds nuw i8, ptr %0, i64 1766
  %55 = load i8, ptr %54, align 2, !tbaa !100
  %56 = getelementptr inbounds nuw i8, ptr %1, i64 1361
  store i8 %55, ptr %56, align 1, !tbaa !101
  %57 = getelementptr inbounds nuw i8, ptr %0, i64 2658
  %58 = load i64, ptr %57, align 2
  %59 = and i64 %58, 2147483648
  %.not59 = icmp eq i64 %59, 0
  br i1 %.not59, label %76, label %60

60:                                               ; preds = %47
  %61 = getelementptr inbounds nuw i8, ptr %0, i64 4864
  %62 = load ptr, ptr %61, align 8, !tbaa !102
  %.not60 = icmp eq ptr %62, null
  br i1 %.not60, label %69, label %63

63:                                               ; preds = %60
  %64 = getelementptr inbounds nuw i8, ptr %62, i64 8
  %65 = load i32, ptr %64, align 8, !tbaa !103
  %66 = icmp sgt i32 %65, 0
  %67 = load i32, ptr getelementptr inbounds nuw (i8, ptr @Curl_trc_feat_ftp, i64 8), align 8
  %68 = icmp sgt i32 %67, 0
  %or.cond = select i1 %66, i1 %68, i1 false
  br i1 %or.cond, label %70, label %76

69:                                               ; preds = %60
  %.old = load i32, ptr getelementptr inbounds nuw (i8, ptr @Curl_trc_feat_ftp, i64 8), align 8, !tbaa !103
  %.old1 = icmp sgt i32 %.old, 0
  br i1 %.old1, label %70, label %76

70:                                               ; preds = %63, %69
  %71 = getelementptr inbounds nuw i8, ptr %1, i64 1358
  %72 = load i8, ptr %71, align 2, !tbaa !20
  %73 = zext i8 %72 to i64
  %74 = getelementptr inbounds nuw [35 x ptr], ptr @ftp_state_names, i64 0, i64 %73
  %75 = load ptr, ptr %74, align 8, !tbaa !7
  tail call void (ptr, ptr, ...) @Curl_trc_ftp(ptr noundef nonnull %0, ptr noundef nonnull @.str.178, ptr noundef %75, i32 noundef 0) #10
  br label %76

76:                                               ; preds = %47, %63, %69, %70, %2, %21, %12
  %.0 = phi i32 [ 27, %21 ], [ 27, %12 ], [ 27, %2 ], [ 0, %70 ], [ 0, %69 ], [ 0, %63 ], [ 0, %47 ]
  ret i32 %.0
}